; Function Attrs: mustprogress nofree norecurse nosync nounwind willreturn memory(read, inaccessiblemem: none) uwtable
define hidden noundef zeroext i1 @_ZN2qe12guarded_defs3invEv(ptr nocapture noundef nonnull readonly align 8 dereferenceable(24) %this) local_unnamed_addr #6 align 2 {
entry:
  %m_defs = getelementptr inbounds i8, ptr %this, i64 16
  %0 = load ptr, ptr %m_defs, align 8
  %cmp.i = icmp eq ptr %0, null
  br i1 %cmp.i, label %_ZNK6vectorIN2qe10def_vectorELb1EjE4sizeEv.exit, label %if.end.i

if.end.i:                                         ; preds = %entry
  %arrayidx.i = getelementptr inbounds i8, ptr %0, i64 -4
  %1 = load i32, ptr %arrayidx.i, align 4
  br label %_ZNK6vectorIN2qe10def_vectorELb1EjE4sizeEv.exit

_ZNK6vectorIN2qe10def_vectorELb1EjE4sizeEv.exit:  ; preds = %entry, %if.end.i
  %retval.0.i = phi i32 [ %1, %if.end.i ], [ 0, %entry ]
  %m_nodes.i = getelementptr inbounds i8, ptr %this, i64 8
  %2 = load ptr, ptr %m_nodes.i, align 8
  %cmp.i.i = icmp eq ptr %2, null
  br i1 %cmp.i.i, label %_ZNK15ref_vector_coreI4expr19ref_manager_wrapperIS0_11ast_managerEE4sizeEv.exit, label %if.end.i.i

if.end.i.i:                                       ; preds = %_ZNK6vectorIN2qe10def_vectorELb1EjE4sizeEv.exit
  %arrayidx.i.i = getelementptr inbounds i8, ptr %2, i64 -4
  %3 = load i32, ptr %arrayidx.i.i, align 4
  br label %_ZNK15ref_vector_coreI4expr19ref_manager_wrapperIS0_11ast_managerEE4sizeEv.exit

_ZNK15ref_vector_coreI4expr19ref_manager_wrapperIS0_11ast_managerEE4sizeEv.exit: ; preds = %_ZNK6vectorIN2qe10def_vectorELb1EjE4sizeEv.exit, %if.end.i.i
  %retval.0.i.i = phi i32 [ %3, %if.end.i.i ], [ 0, %_ZNK6vectorIN2qe10def_vectorELb1EjE4sizeEv.exit ]
  %cmp = icmp eq i32 %retval.0.i, %retval.0.i.i
  ret i1 %cmp
}